target datalayout = "e-m:e-p270:32:32-p271:32:32-p272:64:64-i64:64-i128:128-f80:128-n8:16:32:64-S128"
target triple = "x86_64-pc-linux-gnu"

%struct.ossl_qtx_st = type { ptr, ptr, %struct.ossl_qrl_enc_level_set_st, ptr, ptr, ptr, i64, %struct.ossl_list_st_txe, %struct.ossl_list_st_txe, i64, i64, ptr, i64, i64, i64, ptr, ptr, ptr, ptr, ptr, ptr }
%struct.ossl_qrl_enc_level_set_st = type { [4 x %struct.ossl_qrl_enc_level_st] }
%struct.ossl_qrl_enc_level_st = type { %struct.quic_hdr_protector_st, ptr, [2 x ptr], ptr, ptr, i64, i64, i32, i32, i8, i8, [2 x [16 x i8]], [64 x i8] }
%struct.quic_hdr_protector_st = type { ptr, ptr, ptr, ptr, i32 }
%struct.ossl_list_st_txe = type { ptr, ptr, i64 }

; Function Attrs: nounwind uwtable
define i32 @ossl_qtx_provide_secret(ptr noundef %0, i32 noundef %1, i32 noundef %2, ptr noundef %3, ptr noundef %4, i64 noundef %5) #0 {
  %7 = alloca i32, align 4
  %8 = alloca ptr, align 8
  %9 = alloca i32, align 4
  %10 = alloca i32, align 4
  %11 = alloca ptr, align 8
  %12 = alloca ptr, align 8
  %13 = alloca i64, align 8
  store ptr %0, ptr %8, align 8, !tbaa !14
  store i32 %1, ptr %9, align 4, !tbaa !33
  store i32 %2, ptr %10, align 4, !tbaa !33
  store ptr %3, ptr %11, align 8, !tbaa !45
  store ptr %4, ptr %12, align 8, !tbaa !47
  store i64 %5, ptr %13, align 8, !tbaa !48
  %14 = load i32, ptr %9, align 4, !tbaa !33
  %15 = icmp uge i32 %14, 4
  br i1 %15, label %16, label %17

16:                                               ; preds = %6
  store i32 0, ptr %7, align 4
  br label %32

17:                                               ; preds = %6
  %18 = load ptr, ptr %8, align 8, !tbaa !14
  %19 = getelementptr inbounds nuw %struct.ossl_qtx_st, ptr %18, i32 0, i32 2
  %20 = load ptr, ptr %8, align 8, !tbaa !14
  %21 = getelementptr inbounds nuw %struct.ossl_qtx_st, ptr %20, i32 0, i32 0
  %22 = load ptr, ptr %21, align 8, !tbaa !17
  %23 = load ptr, ptr %8, align 8, !tbaa !14
  %24 = getelementptr inbounds nuw %struct.ossl_qtx_st, ptr %23, i32 0, i32 1
  %25 = load ptr, ptr %24, align 8, !tbaa !24
  %26 = load i32, ptr %9, align 4, !tbaa !33
  %27 = load i32, ptr %10, align 4, !tbaa !33
  %28 = load ptr, ptr %11, align 8, !tbaa !45
  %29 = load ptr, ptr %12, align 8, !tbaa !47
  %30 = load i64, ptr %13, align 8, !tbaa !48
  %31 = call i32 @ossl_qrl_enc_level_set_provide_secret(ptr noundef %19, ptr noundef %22, ptr noundef %25, i32 noundef %26, i32 noundef %27, ptr noundef %28, ptr noundef %29, i64 noundef %30, i8 noundef zeroext 0, i32 noundef 1)
  store i32 %31, ptr %7, align 4
  br label %32

32:                                               ; preds = %17, %16
  %33 = load i32, ptr %7, align 4
  ret i32 %33
}