; Function Attrs: nounwind uwtable
define i32 @ossl_qtx_provide_secret(ptr noundef %0, i32 noundef %1, i32 noundef %2, ptr noundef %3, ptr noundef %4, i64 noundef %5) local_unnamed_addr #0 {
  %7 = icmp ugt i32 %1, 3
  br i1 %7, label %14, label %8

8:                                                ; preds = %6
  %9 = getelementptr inbounds nuw i8, ptr %0, i64 16
  %10 = load ptr, ptr %0, align 8, !tbaa !13
  %11 = getelementptr inbounds nuw i8, ptr %0, i64 8
  %12 = load ptr, ptr %11, align 8, !tbaa !20
  %13 = tail call i32 @ossl_qrl_enc_level_set_provide_secret(ptr noundef nonnull %9, ptr noundef %10, ptr noundef %12, i32 noundef %1, i32 noundef %2, ptr noundef %3, ptr noundef %4, i64 noundef %5, i8 noundef zeroext 0, i32 noundef 1) #11
  br label %14

14:                                               ; preds = %6, %8
  %.0 = phi i32 [ %13, %8 ], [ 0, %6 ]
  ret i32 %.0
}